target datalayout = "e-m:e-p270:32:32-p271:32:32-p272:64:64-i64:64-i128:128-f80:128-n8:16:32:64-S128"
target triple = "x86_64-pc-linux-gnu"

%struct.settings = type { i64, i32, i32, i32, ptr, i32, i32, i32, ptr, ptr, i32, double, i32, i32, i32, i8, i32, i32, i8, i32, i32, i32, i32, i32, i32, i8, i8, i8, i8, i8, i8, i8, i32, i32, double, double, i32, i32, i8, i32, i8, i8, ptr, i32, i32, i32, i32, double, double, i32, i8, i32, i32, i32, i32, i32, i8, i8, i8, ptr, i32, i32, i32, i32, i32, i32, i32, i32, i32, i32, double, i8, i32, i32, ptr, i32 }
%struct._stritem = type { ptr, ptr, ptr, i32, i32, i32, i16, i16, i8, i8, [0 x %union.anon] }
%union.anon = type { i64 }

@settings = external global %struct.settings, align 8
@current_time = external global i32, align 4

; Function Attrs: nounwind uwtable
define dso_local i32 @item_is_flushed(ptr noundef %0) #0 {
  %2 = alloca i32, align 4
  %3 = alloca ptr, align 8
  %4 = alloca i32, align 4
  %5 = alloca i32, align 4
  store ptr %0, ptr %3, align 8, !tbaa !16
  call void @llvm.lifetime.start.p0(i64 4, ptr %4) #9
  %6 = load i32, ptr getelementptr inbounds nuw (%struct.settings, ptr @settings, i32 0, i32 6), align 4, !tbaa !19
  store i32 %6, ptr %4, align 4, !tbaa !4
  %7 = load ptr, ptr %3, align 8, !tbaa !16
  %8 = getelementptr inbounds nuw %struct._stritem, ptr %7, i32 0, i32 3
  %9 = load i32, ptr %8, align 8, !tbaa !4
  %10 = load i32, ptr %4, align 4, !tbaa !4
  %11 = icmp ule i32 %9, %10
  br i1 %11, label %12, label %17

12:                                               ; preds = %1
  %13 = load i32, ptr %4, align 4, !tbaa !4
  %14 = load volatile i32, ptr @current_time, align 4, !tbaa !4
  %15 = icmp ule i32 %13, %14
  br i1 %15, label %16, label %17

16:                                               ; preds = %12
  store i32 1, ptr %2, align 4
  store i32 1, ptr %5, align 4
  br label %18

17:                                               ; preds = %12, %1
  store i32 0, ptr %2, align 4
  store i32 1, ptr %5, align 4
  br label %18

18:                                               ; preds = %17, %16
  call void @llvm.lifetime.end.p0(i64 4, ptr %4) #9
  %19 = load i32, ptr %2, align 4
  ret i32 %19
}