; Function Attrs: mustprogress nofree norecurse nounwind willreturn memory(readwrite, argmem: read) uwtable
define dso_local range(i32 0, 2) i32 @item_is_flushed(ptr noundef readonly captures(none) %0) local_unnamed_addr #5 {
  %2 = load i32, ptr getelementptr inbounds nuw (i8, ptr @settings, i64 36), align 4, !tbaa !15
  %3 = getelementptr inbounds nuw i8, ptr %0, i64 24
  %4 = load i32, ptr %3, align 8, !tbaa !22
  %.not = icmp ugt i32 %4, %2
  br i1 %.not, label %7, label %5

5:                                                ; preds = %1
  %6 = load volatile i32, ptr @current_time, align 4, !tbaa !22
  %.not4 = icmp ugt i32 %2, %6
  br i1 %.not4, label %7, label %8

7:                                                ; preds = %5, %1
  br label %8

8:                                                ; preds = %5, %7
  %.0 = phi i32 [ 0, %7 ], [ 1, %5 ]
  ret i32 %.0
}